; Function Attrs: mustprogress nounwind uwtable
define dso_local noundef zeroext i1 @_ZN4node6crypto7TLSWrap7IsAliveEv(ptr nocapture noundef nonnull readonly align 8 dereferenceable(457) %this) unnamed_addr #3 align 2 {
entry:
  %ssl_ = getelementptr inbounds i8, ptr %this, i64 168
  %0 = load ptr, ptr %ssl_, align 8
  %cmp.i.not = icmp eq ptr %0, null
  br i1 %cmp.i.not, label %land.end, label %land.lhs.true

land.lhs.true:                                    ; preds = %entry
  %stream_.i.i = getelementptr inbounds i8, ptr %this, i64 128
  %1 = load ptr, ptr %stream_.i.i, align 8
  %cmp.not = icmp eq ptr %1, null
  br i1 %cmp.not, label %land.end, label %land.rhs

land.rhs:                                         ; preds = %land.lhs.true
  %vtable = load ptr, ptr %1, align 8
  %vfn = getelementptr inbounds i8, ptr %vtable, i64 80
  %2 = load ptr, ptr %vfn, align 8
  %call4 = tail call noundef zeroext i1 %2(ptr noundef nonnull align 8 dereferenceable(64) %1) #23
  br label %land.end

land.end:                                         ; preds = %land.rhs, %land.lhs.true, %entry
  %3 = phi i1 [ false, %land.lhs.true ], [ false, %entry ], [ %call4, %land.rhs ]
  ret i1 %3
}